target datalayout = "e-m:e-p270:32:32-p271:32:32-p272:64:64-i64:64-i128:128-f80:128-n8:16:32:64-S128"
target triple = "x86_64-pc-linux-gnu"

%struct.UBiDi = type { ptr, ptr, i32, i32, i32, i32, i32, i32, i32, i32, i32, ptr, ptr, ptr, ptr, ptr, ptr, i8, i8, ptr, ptr, i8, i32, i32, i8, i8, i8, ptr, i32, ptr, i32, ptr, i32, i32, i32, i32, i32, ptr, [10 x %struct.Para], i32, ptr, [1 x %struct.Run], i32, ptr, [5 x %struct.Isolate], %struct.InsertPoints, i32, ptr, ptr }
%struct.Para = type { i32, i32 }
%struct.Run = type { i32, i32, i32 }
%struct.Isolate = type { i32, i32, i32, i16 }
%struct.InsertPoints = type { i32, i32, i32, i32, ptr }

; Function Attrs: mustprogress uwtable
define zeroext i8 @ubidi_getLevelAt_77(ptr noundef %0, i32 noundef %1) #0 {
  %3 = alloca i8, align 1
  %4 = alloca ptr, align 8
  %5 = alloca i32, align 4
  store ptr %0, ptr %4, align 8, !tbaa !3
  store i32 %1, ptr %5, align 4, !tbaa !8
  %6 = load ptr, ptr %4, align 8, !tbaa !3
  %7 = icmp ne ptr %6, null
  br i1 %7, label %8, label %38

8:                                                ; preds = %2
  %9 = load ptr, ptr %4, align 8, !tbaa !3
  %10 = getelementptr inbounds nuw %struct.UBiDi, ptr %9, i32 0, i32 0
  %11 = load ptr, ptr %10, align 8, !tbaa !13
  %12 = load ptr, ptr %4, align 8, !tbaa !3
  %13 = icmp eq ptr %11, %12
  br i1 %13, label %29, label %14

14:                                               ; preds = %8
  %15 = load ptr, ptr %4, align 8, !tbaa !3
  %16 = getelementptr inbounds nuw %struct.UBiDi, ptr %15, i32 0, i32 0
  %17 = load ptr, ptr %16, align 8, !tbaa !13
  %18 = icmp ne ptr %17, null
  br i1 %18, label %19, label %38

19:                                               ; preds = %14
  %20 = load ptr, ptr %4, align 8, !tbaa !3
  %21 = getelementptr inbounds nuw %struct.UBiDi, ptr %20, i32 0, i32 0
  %22 = load ptr, ptr %21, align 8, !tbaa !13
  %23 = getelementptr inbounds nuw %struct.UBiDi, ptr %22, i32 0, i32 0
  %24 = load ptr, ptr %23, align 8, !tbaa !13
  %25 = load ptr, ptr %4, align 8, !tbaa !3
  %26 = getelementptr inbounds nuw %struct.UBiDi, ptr %25, i32 0, i32 0
  %27 = load ptr, ptr %26, align 8, !tbaa !13
  %28 = icmp eq ptr %24, %27
  br i1 %28, label %29, label %38

29:                                               ; preds = %19, %8
  %30 = load i32, ptr %5, align 4, !tbaa !8
  %31 = icmp slt i32 %30, 0
  br i1 %31, label %38, label %32

32:                                               ; preds = %29
  %33 = load ptr, ptr %4, align 8, !tbaa !3
  %34 = getelementptr inbounds nuw %struct.UBiDi, ptr %33, i32 0, i32 3
  %35 = load i32, ptr %34, align 4, !tbaa !26
  %36 = load i32, ptr %5, align 4, !tbaa !8
  %37 = icmp sle i32 %35, %36
  br i1 %37, label %38, label %39

38:                                               ; preds = %32, %29, %19, %14, %2
  store i8 0, ptr %3, align 1
  br label %82

39:                                               ; preds = %32
  %40 = load ptr, ptr %4, align 8, !tbaa !3
  %41 = getelementptr inbounds nuw %struct.UBiDi, ptr %40, i32 0, i32 32
  %42 = load i32, ptr %41, align 8, !tbaa !48
  %43 = icmp ne i32 %42, 2
  br i1 %43, label %50, label %44

44:                                               ; preds = %39
  %45 = load i32, ptr %5, align 4, !tbaa !8
  %46 = load ptr, ptr %4, align 8, !tbaa !3
  %47 = getelementptr inbounds nuw %struct.UBiDi, ptr %46, i32 0, i32 35
  %48 = load i32, ptr %47, align 4, !tbaa !49
  %49 = icmp sge i32 %45, %48
  br i1 %49, label %50, label %74

50:                                               ; preds = %44, %39
  %51 = load ptr, ptr %4, align 8, !tbaa !3
  %52 = getelementptr inbounds nuw %struct.UBiDi, ptr %51, i32 0, i32 26
  %53 = load i8, ptr %52, align 2, !tbaa !30
  %54 = icmp ne i8 %53, 0
  br i1 %54, label %55, label %64

55:                                               ; preds = %50
  %56 = load i32, ptr %5, align 4, !tbaa !8
  %57 = load ptr, ptr %4, align 8, !tbaa !3
  %58 = getelementptr inbounds nuw %struct.UBiDi, ptr %57, i32 0, i32 37
  %59 = load ptr, ptr %58, align 8, !tbaa !31
  %60 = getelementptr inbounds %struct.Para, ptr %59, i64 0
  %61 = getelementptr inbounds nuw %struct.Para, ptr %60, i32 0, i32 0
  %62 = load i32, ptr %61, align 4, !tbaa !32
  %63 = icmp slt i32 %56, %62
  br i1 %63, label %64, label %68

64:                                               ; preds = %55, %50
  %65 = load ptr, ptr %4, align 8, !tbaa !3
  %66 = getelementptr inbounds nuw %struct.UBiDi, ptr %65, i32 0, i32 25
  %67 = load i8, ptr %66, align 1, !tbaa !34
  br label %72

68:                                               ; preds = %55
  %69 = load ptr, ptr %4, align 8, !tbaa !3
  %70 = load i32, ptr %5, align 4, !tbaa !8
  %71 = call zeroext i8 @ubidi_getParaLevelAtIndex_77(ptr noundef %69, i32 noundef %70)
  br label %72

72:                                               ; preds = %68, %64
  %73 = phi i8 [ %67, %64 ], [ %71, %68 ]
  store i8 %73, ptr %3, align 1
  br label %82

74:                                               ; preds = %44
  %75 = load ptr, ptr %4, align 8, !tbaa !3
  %76 = getelementptr inbounds nuw %struct.UBiDi, ptr %75, i32 0, i32 20
  %77 = load ptr, ptr %76, align 8, !tbaa !46
  %78 = load i32, ptr %5, align 4, !tbaa !8
  %79 = sext i32 %78 to i64
  %80 = getelementptr inbounds i8, ptr %77, i64 %79
  %81 = load i8, ptr %80, align 1, !tbaa !51
  store i8 %81, ptr %3, align 1
  br label %82

82:                                               ; preds = %74, %72, %38
  %83 = load i8, ptr %3, align 1
  ret i8 %83
}