; Function Attrs: mustprogress uwtable
define zeroext i8 @ubidi_getLevelAt_77(ptr noundef %0, i32 noundef %1) local_unnamed_addr #0 {
  %.not = icmp eq ptr %0, null
  br i1 %.not, label %40, label %3

3:                                                ; preds = %2
  %4 = load ptr, ptr %0, align 8, !tbaa !7
  %5 = icmp eq ptr %4, %0
  br i1 %5, label %11, label %6

6:                                                ; preds = %3
  %.not25 = icmp eq ptr %4, null
  br i1 %.not25, label %40, label %7

7:                                                ; preds = %6
  %8 = load ptr, ptr %4, align 8, !tbaa !7
  %9 = icmp ne ptr %8, %4
  %10 = icmp slt i32 %1, 0
  %or.cond = or i1 %10, %9
  br i1 %or.cond, label %40, label %12

11:                                               ; preds = %3
  %.old1 = icmp slt i32 %1, 0
  br i1 %.old1, label %40, label %12

12:                                               ; preds = %7, %11
  %13 = getelementptr inbounds nuw i8, ptr %0, i64 20
  %14 = load i32, ptr %13, align 4, !tbaa !23
  %.not26 = icmp sgt i32 %14, %1
  br i1 %.not26, label %15, label %40

15:                                               ; preds = %12
  %16 = getelementptr inbounds nuw i8, ptr %0, i64 184
  %17 = load i32, ptr %16, align 8, !tbaa !45
  %.not27 = icmp eq i32 %17, 2
  br i1 %.not27, label %18, label %21

18:                                               ; preds = %15
  %19 = getelementptr inbounds nuw i8, ptr %0, i64 196
  %20 = load i32, ptr %19, align 4, !tbaa !46
  %.not28 = icmp slt i32 %1, %20
  br i1 %.not28, label %34, label %21

21:                                               ; preds = %18, %15
  %22 = getelementptr inbounds nuw i8, ptr %0, i64 142
  %23 = load i8, ptr %22, align 2, !tbaa !27
  %.not29 = icmp eq i8 %23, 0
  br i1 %.not29, label %29, label %24

24:                                               ; preds = %21
  %25 = getelementptr inbounds nuw i8, ptr %0, i64 208
  %26 = load ptr, ptr %25, align 8, !tbaa !28
  %27 = load i32, ptr %26, align 4, !tbaa !29
  %28 = icmp slt i32 %1, %27
  br i1 %28, label %29, label %32

29:                                               ; preds = %24, %21
  %30 = getelementptr inbounds nuw i8, ptr %0, i64 141
  %31 = load i8, ptr %30, align 1, !tbaa !31
  br label %40

32:                                               ; preds = %24
  %33 = tail call zeroext i8 @ubidi_getParaLevelAtIndex_77(ptr noundef nonnull %0, i32 noundef %1)
  br label %40

34:                                               ; preds = %18
  %35 = getelementptr inbounds nuw i8, ptr %0, i64 120
  %36 = load ptr, ptr %35, align 8, !tbaa !43
  %37 = zext nneg i32 %1 to i64
  %38 = getelementptr inbounds nuw i8, ptr %36, i64 %37
  %39 = load i8, ptr %38, align 1, !tbaa !47
  br label %40

40:                                               ; preds = %29, %32, %2, %6, %7, %11, %12, %34
  %.0 = phi i8 [ %39, %34 ], [ 0, %12 ], [ 0, %11 ], [ 0, %7 ], [ 0, %6 ], [ 0, %2 ], [ %31, %29 ], [ %33, %32 ]
  ret i8 %.0
}